; ModuleID = 'bench/folly/original/Phase.ll'
source_filename = "bench/folly/original/Phase.ll"
target datalayout = "e-m:e-p270:32:32-p271:32:32-p272:64:64-i64:64-i128:128-f80:128-n8:16:32:64-S128"
target triple = "x86_64-pc-linux-gnu"

@.str = private unnamed_addr constant [48 x i8] c"folly-init: unexpected process-phase transition\00", align 1
@_ZTISt11logic_error = external constant ptr
@_ZN5folly12_GLOBAL__N_113process_phaseE.0 = internal unnamed_addr global i32 0, align 4

; Function Attrs: mustprogress uwtable
define void @_ZN5folly18set_process_phasesEv() local_unnamed_addr #0 personality ptr @__gxx_personality_v0 {
  %1 = load atomic i32, ptr @_ZN5folly12_GLOBAL__N_113process_phaseE.0 monotonic, align 4
  %.not.i = icmp eq i32 %1, 0
  br i1 %.not.i, label %_ZN5folly12_GLOBAL__N_117set_process_phaseENS_12ProcessPhaseE.exit, label %2

2:                                                ; preds = %0
  %3 = tail call ptr @__cxa_allocate_exception(i64 16) #7
  invoke void @_ZNSt11logic_errorC1EPKc(ptr noundef nonnull align 8 dereferenceable(16) %3, ptr noundef nonnull @.str)
          to label %4 unwind label %5

4:                                                ; preds = %2
  tail call void @__cxa_throw(ptr nonnull %3, ptr nonnull @_ZTISt11logic_error, ptr nonnull @_ZNSt11logic_errorD1Ev) #8
  unreachable

5:                                                ; preds = %2
  %6 = landingpad { ptr, i32 }
          cleanup
  tail call void @__cxa_free_exception(ptr nonnull %3) #7
  resume { ptr, i32 } %6

_ZN5folly12_GLOBAL__N_117set_process_phaseENS_12ProcessPhaseE.exit: ; preds = %0
  store atomic i32 1, ptr @_ZN5folly12_GLOBAL__N_113process_phaseE.0 monotonic, align 4
  %7 = tail call i32 @atexit(ptr noundef nonnull @"_ZZN5folly18set_process_phasesEvEN3$_08__invokeEv") #7
  ret void
}

; Function Attrs: nofree nounwind
declare i32 @atexit(ptr noundef) local_unnamed_addr #1

; Function Attrs: mustprogress nofree norecurse nounwind willreturn memory(readwrite, argmem: none, inaccessiblemem: none) uwtable
define noundef i32 @_ZN5folly17get_process_phaseEv() local_unnamed_addr #2 {
  %1 = load atomic i32, ptr @_ZN5folly12_GLOBAL__N_113process_phaseE.0 monotonic, align 4
  ret i32 %1
}

declare ptr @__cxa_allocate_exception(i64) local_unnamed_addr

declare void @_ZNSt11logic_errorC1EPKc(ptr noundef nonnull align 8 dereferenceable(16), ptr noundef) unnamed_addr #3

declare i32 @__gxx_personality_v0(...)

declare void @__cxa_free_exception(ptr) local_unnamed_addr

; Function Attrs: nounwind
declare void @_ZNSt11logic_errorD1Ev(ptr noundef nonnull align 8 dereferenceable(16)) unnamed_addr #4

; Function Attrs: cold noreturn
declare void @__cxa_throw(ptr, ptr, ptr) local_unnamed_addr #5

; Function Attrs: inlinehint mustprogress uwtable
define internal void @"_ZZN5folly18set_process_phasesEvEN3$_08__invokeEv"() #6 align 2 personality ptr @__gxx_personality_v0 {
  %1 = load atomic i32, ptr @_ZN5folly12_GLOBAL__N_113process_phaseE.0 monotonic, align 4
  %.not.i.i = icmp eq i32 %1, 1
  br i1 %.not.i.i, label %"_ZZN5folly18set_process_phasesEvENK3$_0clEv.exit", label %2

2:                                                ; preds = %0
  %3 = tail call ptr @__cxa_allocate_exception(i64 16) #7
  invoke void @_ZNSt11logic_errorC1EPKc(ptr noundef nonnull align 8 dereferenceable(16) %3, ptr noundef nonnull @.str)
          to label %4 unwind label %5

4:                                                ; preds = %2
  tail call void @__cxa_throw(ptr nonnull %3, ptr nonnull @_ZTISt11logic_error, ptr nonnull @_ZNSt11logic_errorD1Ev) #8
  unreachable

5:                                                ; preds = %2
  %6 = landingpad { ptr, i32 }
          cleanup
  tail call void @__cxa_free_exception(ptr nonnull %3) #7
  resume { ptr, i32 } %6

"_ZZN5folly18set_process_phasesEvENK3$_0clEv.exit": ; preds = %0
  store atomic i32 2, ptr @_ZN5folly12_GLOBAL__N_113process_phaseE.0 monotonic, align 4
  ret void
}


!llvm.module.flags = !{!0, !1, !2, !3, !4, !5, !6}

!0 = !{i32 7, !"Dwarf Version", i32 5}
!1 = !{i32 2, !"Debug Info Version", i32 3}
!2 = !{i32 1, !"wchar_size", i32 4}
!3 = !{i32 7, !"openmp", i32 51}
!4 = !{i32 8, !"PIC Level", i32 2}
!5 = !{i32 7, !"uwtable", i32 2}
!6 = !{i32 7, !"debug-info-assignment-tracking", i1 true}
